target datalayout = "e-m:e-p270:32:32-p271:32:32-p272:64:64-i64:64-i128:128-f80:128-n8:16:32:64-S128"
target triple = "x86_64-pc-linux-gnu"

@wal_segment_size = dso_local global i32 16777216, align 4
@RedoRecPtr = internal global i64 0, align 8
@CheckPointSegments = dso_local global i32 0, align 4

; Function Attrs: nounwind uwtable
define dso_local zeroext i1 @XLogCheckpointNeeded(i64 noundef %0) #0 {
  %2 = alloca i1, align 1
  %3 = alloca i64, align 8
  %4 = alloca i64, align 8
  %5 = alloca i32, align 4
  store i64 %0, ptr %3, align 8
  call void @llvm.lifetime.start.p0(i64 8, ptr %4) #16
  %6 = load i64, ptr @RedoRecPtr, align 8
  %7 = load i32, ptr @wal_segment_size, align 4
  %8 = sext i32 %7 to i64
  %9 = udiv i64 %6, %8
  store i64 %9, ptr %4, align 8
  %10 = load i64, ptr %3, align 8
  %11 = load i64, ptr %4, align 8
  %12 = load i32, ptr @CheckPointSegments, align 4
  %13 = sub i32 %12, 1
  %14 = sext i32 %13 to i64
  %15 = add i64 %11, %14
  %16 = icmp uge i64 %10, %15
  br i1 %16, label %17, label %18

17:                                               ; preds = %1
  store i1 true, ptr %2, align 1
  store i32 1, ptr %5, align 4
  br label %19

18:                                               ; preds = %1
  store i1 false, ptr %2, align 1
  store i32 1, ptr %5, align 4
  br label %19

19:                                               ; preds = %18, %17
  call void @llvm.lifetime.end.p0(i64 8, ptr %4) #16
  %20 = load i1, ptr %2, align 1
  ret i1 %20
}