; Function Attrs: mustprogress nofree norecurse nosync nounwind willreturn memory(read, argmem: none, inaccessiblemem: none) uwtable
define dso_local zeroext i1 @XLogCheckpointNeeded(i64 noundef %0) local_unnamed_addr #9 {
  %2 = load i64, ptr @RedoRecPtr, align 8
  %3 = load i32, ptr @wal_segment_size, align 4
  %4 = sext i32 %3 to i64
  %5 = udiv i64 %2, %4
  %6 = load i32, ptr @CheckPointSegments, align 4
  %7 = add i32 %6, -1
  %8 = sext i32 %7 to i64
  %9 = add i64 %5, %8
  %.not = icmp uge i64 %0, %9
  ret i1 %.not
}